target datalayout = "e-m:e-p270:32:32-p271:32:32-p272:64:64-i64:64-i128:128-f80:128-n8:16:32:64-S128"
target triple = "x86_64-pc-linux-gnu"

%struct.Fxch_SCHashTable_t_ = type { ptr, ptr, i32, i32, %struct.Vec_Int_t_, %struct.Vec_Int_t_ }
%struct.Vec_Int_t_ = type { i32, i32, ptr }

@.str = private unnamed_addr constant [26 x i8] c"SubCube Hash Table at %p\0A\00", align 1
@.str.1 = private unnamed_addr constant [11 x i8] c"%20s %20s\0A\00", align 1
@.str.2 = private unnamed_addr constant [9 x i8] c"nEntries\00", align 1
@.str.3 = private unnamed_addr constant [18 x i8] c"Memory Usage (MB)\00", align 1
@.str.4 = private unnamed_addr constant [13 x i8] c"%20d %18.2f\0A\00", align 1

; Function Attrs: nounwind uwtable
define i32 @Fxch_SCHashTableMemory(ptr noundef %0) #0 {
  %2 = alloca ptr, align 8
  %3 = alloca i32, align 4
  store ptr %0, ptr %2, align 8, !tbaa !10
  call void @llvm.lifetime.start.p0(i64 4, ptr %3) #10
  store i32 56, ptr %3, align 4, !tbaa !8
  %4 = load ptr, ptr %2, align 8, !tbaa !10
  %5 = getelementptr inbounds nuw %struct.Fxch_SCHashTable_t_, ptr %4, i32 0, i32 3
  %6 = load i32, ptr %5, align 4, !tbaa !17
  %7 = add i32 %6, 1
  %8 = zext i32 %7 to i64
  %9 = mul i64 12, %8
  %10 = load i32, ptr %3, align 4, !tbaa !8
  %11 = zext i32 %10 to i64
  %12 = add i64 %11, %9
  %13 = trunc i64 %12 to i32
  store i32 %13, ptr %3, align 4, !tbaa !8
  %14 = load i32, ptr %3, align 4, !tbaa !8
  call void @llvm.lifetime.end.p0(i64 4, ptr %3) #10
  ret i32 %14
}

; Function Attrs: nounwind uwtable
define void @Fxch_SCHashTablePrint(ptr noundef %0) #0 {
  %2 = alloca ptr, align 8
  %3 = alloca i32, align 4
  store ptr %0, ptr %2, align 8, !tbaa !10
  call void @llvm.lifetime.start.p0(i64 4, ptr %3) #10
  %4 = load ptr, ptr %2, align 8, !tbaa !10
  %5 = call i32 (ptr, ...) @printf(ptr noundef @.str, ptr noundef %4)
  %6 = call i32 (ptr, ...) @printf(ptr noundef @.str.1, ptr noundef @.str.2, ptr noundef @.str.3)
  %7 = load ptr, ptr %2, align 8, !tbaa !10
  %8 = call i32 @Fxch_SCHashTableMemory(ptr noundef %7)
  store i32 %8, ptr %3, align 4, !tbaa !8
  %9 = load ptr, ptr %2, align 8, !tbaa !10
  %10 = getelementptr inbounds nuw %struct.Fxch_SCHashTable_t_, ptr %9, i32 0, i32 2
  %11 = load i32, ptr %10, align 8, !tbaa !37
  %12 = load i32, ptr %3, align 4, !tbaa !8
  %13 = sitofp i32 %12 to double
  %14 = fdiv double %13, 0x4130000000000000
  %15 = call i32 (ptr, ...) @printf(ptr noundef @.str.4, i32 noundef %11, double noundef %14)
  call void @llvm.lifetime.end.p0(i64 4, ptr %3) #10
  ret void
}