; Function Attrs: nofree nounwind uwtable
define void @Fxch_SCHashTablePrint(ptr noundef %0) local_unnamed_addr #11 {
  %2 = tail call i32 (ptr, ...) @printf(ptr noundef nonnull dereferenceable(1) @.str, ptr noundef %0)
  %3 = tail call i32 (ptr, ...) @printf(ptr noundef nonnull dereferenceable(1) @.str.1, ptr noundef nonnull @.str.2, ptr noundef nonnull @.str.3)
  %4 = getelementptr inbounds nuw i8, ptr %0, i64 20
  %5 = load i32, ptr %4, align 4, !tbaa !13
  %6 = mul i32 %5, 12
  %7 = add i32 %6, 68
  %8 = getelementptr inbounds nuw i8, ptr %0, i64 16
  %9 = load i32, ptr %8, align 8, !tbaa !26
  %10 = sitofp i32 %7 to double
  %11 = fmul double %10, 0x3EB0000000000000
  %12 = tail call i32 (ptr, ...) @printf(ptr noundef nonnull dereferenceable(1) @.str.4, i32 noundef %9, double noundef %11)
  ret void
}